; Function Attrs: mustprogress uwtable
define hidden noundef zeroext i1 @_ZNK11doc_manager11well_formedERK3doc(ptr noundef nonnull align 8 dereferenceable(1080) %this, ptr nocapture noundef nonnull readonly align 8 dereferenceable(88) %d) local_unnamed_addr #3 align 2 {
entry:
  %0 = load ptr, ptr %d, align 8
  %call2 = tail call noundef zeroext i1 @_ZNK11tbv_manager14is_well_formedERK3tbv(ptr noundef nonnull align 8 dereferenceable(552) %this, ptr noundef nonnull align 4 dereferenceable(4) %0)
  br i1 %call2, label %for.cond.preheader, label %return

for.cond.preheader:                               ; preds = %entry
  %m_neg.i = getelementptr inbounds i8, ptr %d, i64 8
  %m_pos.i.i = getelementptr inbounds i8, ptr %d, i64 16
  %1 = load i32, ptr %m_pos.i.i, align 8
  %cmp12.not = icmp eq i32 %1, 0
  br i1 %cmp12.not, label %return, label %for.body

for.cond:                                         ; preds = %if.end10
  %indvars.iv.next = add nuw nsw i64 %indvars.iv, 1
  %2 = load i32, ptr %m_pos.i.i, align 8
  %3 = zext i32 %2 to i64
  %cmp = icmp ult i64 %indvars.iv.next, %3
  br i1 %cmp, label %for.body, label %return, !llvm.loop !16

for.body:                                         ; preds = %for.cond.preheader, %for.cond
  %indvars.iv = phi i64 [ %indvars.iv.next, %for.cond ], [ 0, %for.cond.preheader ]
  %4 = load ptr, ptr %m_neg.i, align 8
  %arrayidx.i.i = getelementptr inbounds ptr, ptr %4, i64 %indvars.iv
  %5 = load ptr, ptr %arrayidx.i.i, align 8
  %call8 = tail call noundef zeroext i1 @_ZNK11tbv_manager14is_well_formedERK3tbv(ptr noundef nonnull align 8 dereferenceable(552) %this, ptr noundef nonnull align 4 dereferenceable(4) %5)
  br i1 %call8, label %if.end10, label %return

if.end10:                                         ; preds = %for.body
  %6 = load ptr, ptr %d, align 8
  %7 = load ptr, ptr %m_neg.i, align 8
  %arrayidx.i.i11 = getelementptr inbounds ptr, ptr %7, i64 %indvars.iv
  %8 = load ptr, ptr %arrayidx.i.i11, align 8
  %call15 = tail call noundef zeroext i1 @_ZNK11tbv_manager8containsERK3tbvS2_(ptr noundef nonnull align 8 dereferenceable(552) %this, ptr noundef nonnull align 4 dereferenceable(4) %6, ptr noundef nonnull align 4 dereferenceable(4) %8)
  br i1 %call15, label %for.cond, label %return

return:                                           ; preds = %for.body, %if.end10, %for.cond, %for.cond.preheader, %entry
  %retval.0 = phi i1 [ false, %entry ], [ true, %for.cond.preheader ], [ false, %for.body ], [ false, %if.end10 ], [ true, %for.cond ]
  ret i1 %retval.0
}